; ModuleID = '39/1552.c'
source_filename = "39/1552.c"
target datalayout = "e-m:e-p270:32:32-p271:32:32-p272:64:64-i64:64-f80:128-n8:16:32:64-S128"
target triple = "x86_64-pc-linux-gnu"

%struct.student = type { [20 x i8], i32, i32, i8, i8, i32, i64 }

@.str = private unnamed_addr constant [3 x i8] c"%d\00", align 1
@.str.1 = private unnamed_addr constant [19 x i8] c"%s%d%d%c%c%c%c%c%d\00", align 1
@.str.2 = private unnamed_addr constant [10 x i8] c"%s\0A%d\0A%d\0A\00", align 1

; Function Attrs: noinline nounwind uwtable
define dso_local void @main() #0 {
  %1 = alloca i32, align 4
  %2 = alloca i32, align 4
  %3 = alloca i32, align 4
  %4 = alloca i32, align 4
  %5 = alloca i32, align 4
  %6 = alloca i8, align 1
  %7 = alloca [100 x %struct.student], align 16
  %8 = call i32 (i8*, ...) @__isoc99_scanf(i8* getelementptr inbounds ([3 x i8], [3 x i8]* @.str, i64 0, i64 0), i32* %4)
  store i32 0, i32* %2, align 4
  br label %9

9:                                                ; preds = %45, %0
  %10 = load i32, i32* %2, align 4
  %11 = load i32, i32* %4, align 4
  %12 = sub nsw i32 %11, 1
  %13 = icmp sle i32 %10, %12
  br i1 %13, label %14, label %48

14:                                               ; preds = %9
  %15 = load i32, i32* %2, align 4
  %16 = sext i32 %15 to i64
  %17 = getelementptr inbounds [100 x %struct.student], [100 x %struct.student]* %7, i64 0, i64 %16
  %18 = getelementptr inbounds %struct.student, %struct.student* %17, i32 0, i32 0
  %19 = getelementptr inbounds [20 x i8], [20 x i8]* %18, i64 0, i64 0
  %20 = load i32, i32* %2, align 4
  %21 = sext i32 %20 to i64
  %22 = getelementptr inbounds [100 x %struct.student], [100 x %struct.student]* %7, i64 0, i64 %21
  %23 = getelementptr inbounds %struct.student, %struct.student* %22, i32 0, i32 1
  %24 = load i32, i32* %2, align 4
  %25 = sext i32 %24 to i64
  %26 = getelementptr inbounds [100 x %struct.student], [100 x %struct.student]* %7, i64 0, i64 %25
  %27 = getelementptr inbounds %struct.student, %struct.student* %26, i32 0, i32 2
  %28 = load i32, i32* %2, align 4
  %29 = sext i32 %28 to i64
  %30 = getelementptr inbounds [100 x %struct.student], [100 x %struct.student]* %7, i64 0, i64 %29
  %31 = getelementptr inbounds %struct.student, %struct.student* %30, i32 0, i32 3
  %32 = load i32, i32* %2, align 4
  %33 = sext i32 %32 to i64
  %34 = getelementptr inbounds [100 x %struct.student], [100 x %struct.student]* %7, i64 0, i64 %33
  %35 = getelementptr inbounds %struct.student, %struct.student* %34, i32 0, i32 4
  %36 = load i32, i32* %2, align 4
  %37 = sext i32 %36 to i64
  %38 = getelementptr inbounds [100 x %struct.student], [100 x %struct.student]* %7, i64 0, i64 %37
  %39 = getelementptr inbounds %struct.student, %struct.student* %38, i32 0, i32 5
  %40 = call i32 (i8*, ...) @__isoc99_scanf(i8* getelementptr inbounds ([19 x i8], [19 x i8]* @.str.1, i64 0, i64 0), i8* %19, i32* %23, i32* %27, i8* %6, i8* %31, i8* %6, i8* %35, i8* %6, i32* %39)
  %41 = load i32, i32* %2, align 4
  %42 = sext i32 %41 to i64
  %43 = getelementptr inbounds [100 x %struct.student], [100 x %struct.student]* %7, i64 0, i64 %42
  %44 = getelementptr inbounds %struct.student, %struct.student* %43, i32 0, i32 6
  store i64 0, i64* %44, align 8
  br label %45

45:                                               ; preds = %14
  %46 = load i32, i32* %2, align 4
  %47 = add nsw i32 %46, 1
  store i32 %47, i32* %2, align 4
  br label %9

48:                                               ; preds = %9
  store i32 0, i32* %2, align 4
  br label %49

49:                                               ; preds = %175, %48
  %50 = load i32, i32* %2, align 4
  %51 = load i32, i32* %4, align 4
  %52 = sub nsw i32 %51, 1
  %53 = icmp sle i32 %50, %52
  br i1 %53, label %54, label %178

54:                                               ; preds = %49
  %55 = load i32, i32* %2, align 4
  %56 = sext i32 %55 to i64
  %57 = getelementptr inbounds [100 x %struct.student], [100 x %struct.student]* %7, i64 0, i64 %56
  %58 = getelementptr inbounds %struct.student, %struct.student* %57, i32 0, i32 1
  %59 = load i32, i32* %58, align 4
  %60 = icmp sgt i32 %59, 80
  br i1 %60, label %61, label %79

61:                                               ; preds = %54
  %62 = load i32, i32* %2, align 4
  %63 = sext i32 %62 to i64
  %64 = getelementptr inbounds [100 x %struct.student], [100 x %struct.student]* %7, i64 0, i64 %63
  %65 = getelementptr inbounds %struct.student, %struct.student* %64, i32 0, i32 5
  %66 = load i32, i32* %65, align 16
  %67 = icmp sge i32 %66, 1
  br i1 %67, label %68, label %79

68:                                               ; preds = %61
  %69 = load i32, i32* %2, align 4
  %70 = sext i32 %69 to i64
  %71 = getelementptr inbounds [100 x %struct.student], [100 x %struct.student]* %7, i64 0, i64 %70
  %72 = getelementptr inbounds %struct.student, %struct.student* %71, i32 0, i32 6
  %73 = load i64, i64* %72, align 8
  %74 = add nsw i64 %73, 8000
  %75 = load i32, i32* %2, align 4
  %76 = sext i32 %75 to i64
  %77 = getelementptr inbounds [100 x %struct.student], [100 x %struct.student]* %7, i64 0, i64 %76
  %78 = getelementptr inbounds %struct.student, %struct.student* %77, i32 0, i32 6
  store i64 %74, i64* %78, align 8
  br label %79

79:                                               ; preds = %68, %61, %54
  %80 = load i32, i32* %2, align 4
  %81 = sext i32 %80 to i64
  %82 = getelementptr inbounds [100 x %struct.student], [100 x %struct.student]* %7, i64 0, i64 %81
  %83 = getelementptr inbounds %struct.student, %struct.student* %82, i32 0, i32 1
  %84 = load i32, i32* %83, align 4
  %85 = icmp sgt i32 %84, 85
  br i1 %85, label %86, label %104

86:                                               ; preds = %79
  %87 = load i32, i32* %2, align 4
  %88 = sext i32 %87 to i64
  %89 = getelementptr inbounds [100 x %struct.student], [100 x %struct.student]* %7, i64 0, i64 %88
  %90 = getelementptr inbounds %struct.student, %struct.student* %89, i32 0, i32 2
  %91 = load i32, i32* %90, align 8
  %92 = icmp sgt i32 %91, 80
  br i1 %92, label %93, label %104

93:                                               ; preds = %86
  %94 = load i32, i32* %2, align 4
  %95 = sext i32 %94 to i64
  %96 = getelementptr inbounds [100 x %struct.student], [100 x %struct.student]* %7, i64 0, i64 %95
  %97 = getelementptr inbounds %struct.student, %struct.student* %96, i32 0, i32 6
  %98 = load i64, i64* %97, align 8
  %99 = add nsw i64 %98, 4000
  %100 = load i32, i32* %2, align 4
  %101 = sext i32 %100 to i64
  %102 = getelementptr inbounds [100 x %struct.student], [100 x %struct.student]* %7, i64 0, i64 %101
  %103 = getelementptr inbounds %struct.student, %struct.student* %102, i32 0, i32 6
  store i64 %99, i64* %103, align 8
  br label %104

104:                                              ; preds = %93, %86, %79
  %105 = load i32, i32* %2, align 4
  %106 = sext i32 %105 to i64
  %107 = getelementptr inbounds [100 x %struct.student], [100 x %struct.student]* %7, i64 0, i64 %106
  %108 = getelementptr inbounds %struct.student, %struct.student* %107, i32 0, i32 1
  %109 = load i32, i32* %108, align 4
  %110 = icmp sgt i32 %109, 90
  br i1 %110, label %111, label %122

111:                                              ; preds = %104
  %112 = load i32, i32* %2, align 4
  %113 = sext i32 %112 to i64
  %114 = getelementptr inbounds [100 x %struct.student], [100 x %struct.student]* %7, i64 0, i64 %113
  %115 = getelementptr inbounds %struct.student, %struct.student* %114, i32 0, i32 6
  %116 = load i64, i64* %115, align 8
  %117 = add nsw i64 %116, 2000
  %118 = load i32, i32* %2, align 4
  %119 = sext i32 %118 to i64
  %120 = getelementptr inbounds [100 x %struct.student], [100 x %struct.student]* %7, i64 0, i64 %119
  %121 = getelementptr inbounds %struct.student, %struct.student* %120, i32 0, i32 6
  store i64 %117, i64* %121, align 8
  br label %122

122:                                              ; preds = %111, %104
  %123 = load i32, i32* %2, align 4
  %124 = sext i32 %123 to i64
  %125 = getelementptr inbounds [100 x %struct.student], [100 x %struct.student]* %7, i64 0, i64 %124
  %126 = getelementptr inbounds %struct.student, %struct.student* %125, i32 0, i32 1
  %127 = load i32, i32* %126, align 4
  %128 = icmp sgt i32 %127, 85
  br i1 %128, label %129, label %148

129:                                              ; preds = %122
  %130 = load i32, i32* %2, align 4
  %131 = sext i32 %130 to i64
  %132 = getelementptr inbounds [100 x %struct.student], [100 x %struct.student]* %7, i64 0, i64 %131
  %133 = getelementptr inbounds %struct.student, %struct.student* %132, i32 0, i32 4
  %134 = load i8, i8* %133, align 1
  %135 = sext i8 %134 to i32
  %136 = icmp eq i32 %135, 89
  br i1 %136, label %137, label %148

137:                                              ; preds = %129
  %138 = load i32, i32* %2, align 4
  %139 = sext i32 %138 to i64
  %140 = getelementptr inbounds [100 x %struct.student], [100 x %struct.student]* %7, i64 0, i64 %139
  %141 = getelementptr inbounds %struct.student, %struct.student* %140, i32 0, i32 6
  %142 = load i64, i64* %141, align 8
  %143 = add nsw i64 %142, 1000
  %144 = load i32, i32* %2, align 4
  %145 = sext i32 %144 to i64
  %146 = getelementptr inbounds [100 x %struct.student], [100 x %struct.student]* %7, i64 0, i64 %145
  %147 = getelementptr inbounds %struct.student, %struct.student* %146, i32 0, i32 6
  store i64 %143, i64* %147, align 8
  br label %148

148:                                              ; preds = %137, %129, %122
  %149 = load i32, i32* %2, align 4
  %150 = sext i32 %149 to i64
  %151 = getelementptr inbounds [100 x %struct.student], [100 x %struct.student]* %7, i64 0, i64 %150
  %152 = getelementptr inbounds %struct.student, %struct.student* %151, i32 0, i32 2
  %153 = load i32, i32* %152, align 8
  %154 = icmp sgt i32 %153, 80
  br i1 %154, label %155, label %174

155:                                              ; preds = %148
  %156 = load i32, i32* %2, align 4
  %157 = sext i32 %156 to i64
  %158 = getelementptr inbounds [100 x %struct.student], [100 x %struct.student]* %7, i64 0, i64 %157
  %159 = getelementptr inbounds %struct.student, %struct.student* %158, i32 0, i32 3
  %160 = load i8, i8* %159, align 4
  %161 = sext i8 %160 to i32
  %162 = icmp eq i32 %161, 89
  br i1 %162, label %163, label %174

163:                                              ; preds = %155
  %164 = load i32, i32* %2, align 4
  %165 = sext i32 %164 to i64
  %166 = getelementptr inbounds [100 x %struct.student], [100 x %struct.student]* %7, i64 0, i64 %165
  %167 = getelementptr inbounds %struct.student, %struct.student* %166, i32 0, i32 6
  %168 = load i64, i64* %167, align 8
  %169 = add nsw i64 %168, 850
  %170 = load i32, i32* %2, align 4
  %171 = sext i32 %170 to i64
  %172 = getelementptr inbounds [100 x %struct.student], [100 x %struct.student]* %7, i64 0, i64 %171
  %173 = getelementptr inbounds %struct.student, %struct.student* %172, i32 0, i32 6
  store i64 %169, i64* %173, align 8
  br label %174

174:                                              ; preds = %163, %155, %148
  br label %175

175:                                              ; preds = %174
  %176 = load i32, i32* %2, align 4
  %177 = add nsw i32 %176, 1
  store i32 %177, i32* %2, align 4
  br label %49

178:                                              ; preds = %49
  store i32 0, i32* %3, align 4
  %179 = getelementptr inbounds [100 x %struct.student], [100 x %struct.student]* %7, i64 0, i64 0
  %180 = getelementptr inbounds %struct.student, %struct.student* %179, i32 0, i32 6
  %181 = load i64, i64* %180, align 8
  %182 = trunc i64 %181 to i32
  store i32 %182, i32* %1, align 4
  %183 = getelementptr inbounds [100 x %struct.student], [100 x %struct.student]* %7, i64 0, i64 0
  %184 = getelementptr inbounds %struct.student, %struct.student* %183, i32 0, i32 6
  %185 = load i64, i64* %184, align 8
  %186 = trunc i64 %185 to i32
  store i32 %186, i32* %5, align 4
  store i32 1, i32* %2, align 4
  br label %187

187:                                              ; preds = %219, %178
  %188 = load i32, i32* %2, align 4
  %189 = load i32, i32* %4, align 4
  %190 = sub nsw i32 %189, 1
  %191 = icmp sle i32 %188, %190
  br i1 %191, label %192, label %222

192:                                              ; preds = %187
  %193 = load i32, i32* %2, align 4
  %194 = sext i32 %193 to i64
  %195 = getelementptr inbounds [100 x %struct.student], [100 x %struct.student]* %7, i64 0, i64 %194
  %196 = getelementptr inbounds %struct.student, %struct.student* %195, i32 0, i32 6
  %197 = load i64, i64* %196, align 8
  %198 = load i32, i32* %1, align 4
  %199 = sext i32 %198 to i64
  %200 = icmp sgt i64 %197, %199
  br i1 %200, label %201, label %209

201:                                              ; preds = %192
  %202 = load i32, i32* %2, align 4
  store i32 %202, i32* %3, align 4
  %203 = load i32, i32* %2, align 4
  %204 = sext i32 %203 to i64
  %205 = getelementptr inbounds [100 x %struct.student], [100 x %struct.student]* %7, i64 0, i64 %204
  %206 = getelementptr inbounds %struct.student, %struct.student* %205, i32 0, i32 6
  %207 = load i64, i64* %206, align 8
  %208 = trunc i64 %207 to i32
  store i32 %208, i32* %1, align 4
  br label %209

209:                                              ; preds = %201, %192
  %210 = load i32, i32* %5, align 4
  %211 = sext i32 %210 to i64
  %212 = load i32, i32* %2, align 4
  %213 = sext i32 %212 to i64
  %214 = getelementptr inbounds [100 x %struct.student], [100 x %struct.student]* %7, i64 0, i64 %213
  %215 = getelementptr inbounds %struct.student, %struct.student* %214, i32 0, i32 6
  %216 = load i64, i64* %215, align 8
  %217 = add nsw i64 %211, %216
  %218 = trunc i64 %217 to i32
  store i32 %218, i32* %5, align 4
  br label %219

219:                                              ; preds = %209
  %220 = load i32, i32* %2, align 4
  %221 = add nsw i32 %220, 1
  store i32 %221, i32* %2, align 4
  br label %187

222:                                              ; preds = %187
  %223 = load i32, i32* %3, align 4
  %224 = sext i32 %223 to i64
  %225 = getelementptr inbounds [100 x %struct.student], [100 x %struct.student]* %7, i64 0, i64 %224
  %226 = getelementptr inbounds %struct.student, %struct.student* %225, i32 0, i32 0
  %227 = getelementptr inbounds [20 x i8], [20 x i8]* %226, i64 0, i64 0
  %228 = load i32, i32* %1, align 4
  %229 = load i32, i32* %5, align 4
  %230 = call i32 (i8*, ...) @printf(i8* getelementptr inbounds ([10 x i8], [10 x i8]* @.str.2, i64 0, i64 0), i8* %227, i32 %228, i32 %229)
  ret void
}

declare dso_local i32 @__isoc99_scanf(i8*, ...) #1

declare dso_local i32 @printf(i8*, ...) #1


!llvm.module.flags = !{!0}
!llvm.ident = !{!1}

!0 = !{i32 1, !"wchar_size", i32 4}
!1 = !{!"clang version 10.0.0-4ubuntu1 "}
